; Function Attrs: mustprogress nounwind uwtable
define internal void @_ZNK12_GLOBAL__N_112EnumArgument21writeCtorInitializersERN4llvm11raw_ostreamE(ptr noundef nonnull align 8 dereferenceable(218) %0, ptr noundef nonnull align 8 dereferenceable(48) %1) unnamed_addr #0 align 2 {
  %3 = getelementptr inbounds nuw i8, ptr %0, i64 8
  %4 = tail call noundef ptr @_ZNKSt7__cxx1112basic_stringIcSt11char_traitsIcESaIcEE4dataEv(ptr noundef nonnull align 8 dereferenceable(32) %3) #22
  %5 = tail call noundef i64 @_ZNKSt7__cxx1112basic_stringIcSt11char_traitsIcESaIcEE6lengthEv(ptr noundef nonnull align 8 dereferenceable(32) %3) #22
  %6 = getelementptr inbounds nuw i8, ptr %1, i64 24
  %7 = load ptr, ptr %6, align 8
  %8 = getelementptr inbounds nuw i8, ptr %1, i64 32
  %9 = load ptr, ptr %8, align 8
  %10 = ptrtoint ptr %7 to i64
  %11 = ptrtoint ptr %9 to i64
  %12 = sub i64 %10, %11
  %13 = icmp ugt i64 %5, %12
  br i1 %13, label %14, label %16

14:                                               ; preds = %2
  %15 = tail call noundef nonnull align 8 dereferenceable(48) ptr @_ZN4llvm11raw_ostream5writeEPKcm(ptr noundef nonnull align 8 dereferenceable(48) %1, ptr noundef %4, i64 noundef %5) #22
  %.phi.trans.insert = getelementptr inbounds nuw i8, ptr %15, i64 32
  %.pre = load ptr, ptr %.phi.trans.insert, align 8
  br label %_ZN4llvm11raw_ostreamlsENS_9StringRefE.exit

16:                                               ; preds = %2
  %.not.i = icmp eq i64 %5, 0
  br i1 %.not.i, label %_ZN4llvm11raw_ostreamlsENS_9StringRefE.exit, label %17

17:                                               ; preds = %16
  tail call void @llvm.memcpy.p0.p0.i64(ptr align 1 %9, ptr align 1 %4, i64 %5, i1 false)
  %18 = load ptr, ptr %8, align 8
  %19 = getelementptr inbounds i8, ptr %18, i64 %5
  store ptr %19, ptr %8, align 8
  br label %_ZN4llvm11raw_ostreamlsENS_9StringRefE.exit

_ZN4llvm11raw_ostreamlsENS_9StringRefE.exit:      ; preds = %14, %16, %17
  %20 = phi ptr [ %.pre, %14 ], [ %19, %17 ], [ %9, %16 ]
  %.0.i = phi ptr [ %15, %14 ], [ %1, %17 ], [ %1, %16 ]
  %21 = getelementptr inbounds nuw i8, ptr %.0.i, i64 24
  %22 = load ptr, ptr %21, align 8
  %23 = icmp eq ptr %22, %20
  br i1 %23, label %24, label %26

24:                                               ; preds = %_ZN4llvm11raw_ostreamlsENS_9StringRefE.exit
  %25 = tail call noundef nonnull align 8 dereferenceable(48) ptr @_ZN4llvm11raw_ostream5writeEPKcm(ptr noundef nonnull align 8 dereferenceable(48) %.0.i, ptr noundef nonnull @.str.284, i64 noundef 1) #22
  br label %_ZN4llvm11raw_ostreamlsEPKc.exit

26:                                               ; preds = %_ZN4llvm11raw_ostreamlsENS_9StringRefE.exit
  %27 = getelementptr inbounds nuw i8, ptr %.0.i, i64 32
  store i8 40, ptr %20, align 1
  %28 = load ptr, ptr %27, align 8
  %29 = getelementptr inbounds i8, ptr %28, i64 1
  store ptr %29, ptr %27, align 8
  br label %_ZN4llvm11raw_ostreamlsEPKc.exit

_ZN4llvm11raw_ostreamlsEPKc.exit:                 ; preds = %24, %26
  %.0.i.i = phi ptr [ %25, %24 ], [ %.0.i, %26 ]
  %30 = getelementptr inbounds nuw i8, ptr %0, i64 40
  %31 = tail call noundef ptr @_ZNKSt7__cxx1112basic_stringIcSt11char_traitsIcESaIcEE4dataEv(ptr noundef nonnull align 8 dereferenceable(32) %30) #22
  %32 = tail call noundef i64 @_ZNKSt7__cxx1112basic_stringIcSt11char_traitsIcESaIcEE6lengthEv(ptr noundef nonnull align 8 dereferenceable(32) %30) #22
  %33 = getelementptr inbounds nuw i8, ptr %.0.i.i, i64 24
  %34 = load ptr, ptr %33, align 8
  %35 = getelementptr inbounds nuw i8, ptr %.0.i.i, i64 32
  %36 = load ptr, ptr %35, align 8
  %37 = ptrtoint ptr %34 to i64
  %38 = ptrtoint ptr %36 to i64
  %39 = sub i64 %37, %38
  %40 = icmp ugt i64 %32, %39
  br i1 %40, label %41, label %43

41:                                               ; preds = %_ZN4llvm11raw_ostreamlsEPKc.exit
  %42 = tail call noundef nonnull align 8 dereferenceable(48) ptr @_ZN4llvm11raw_ostream5writeEPKcm(ptr noundef nonnull align 8 dereferenceable(48) %.0.i.i, ptr noundef %31, i64 noundef %32) #22
  %.phi.trans.insert12 = getelementptr inbounds nuw i8, ptr %42, i64 32
  %.pre13 = load ptr, ptr %.phi.trans.insert12, align 8
  br label %_ZN4llvm11raw_ostreamlsENS_9StringRefE.exit8

43:                                               ; preds = %_ZN4llvm11raw_ostreamlsEPKc.exit
  %.not.i6 = icmp eq i64 %32, 0
  br i1 %.not.i6, label %_ZN4llvm11raw_ostreamlsENS_9StringRefE.exit8, label %44

44:                                               ; preds = %43
  tail call void @llvm.memcpy.p0.p0.i64(ptr align 1 %36, ptr align 1 %31, i64 %32, i1 false)
  %45 = load ptr, ptr %35, align 8
  %46 = getelementptr inbounds i8, ptr %45, i64 %32
  store ptr %46, ptr %35, align 8
  br label %_ZN4llvm11raw_ostreamlsENS_9StringRefE.exit8

_ZN4llvm11raw_ostreamlsENS_9StringRefE.exit8:     ; preds = %41, %43, %44
  %47 = phi ptr [ %.pre13, %41 ], [ %46, %44 ], [ %36, %43 ]
  %.0.i7 = phi ptr [ %42, %41 ], [ %.0.i.i, %44 ], [ %.0.i.i, %43 ]
  %48 = getelementptr inbounds nuw i8, ptr %.0.i7, i64 24
  %49 = load ptr, ptr %48, align 8
  %50 = icmp eq ptr %49, %47
  br i1 %50, label %51, label %53

51:                                               ; preds = %_ZN4llvm11raw_ostreamlsENS_9StringRefE.exit8
  %52 = tail call noundef nonnull align 8 dereferenceable(48) ptr @_ZN4llvm11raw_ostream5writeEPKcm(ptr noundef nonnull align 8 dereferenceable(48) %.0.i7, ptr noundef nonnull @.str.285, i64 noundef 1) #22
  br label %_ZN4llvm11raw_ostreamlsEPKc.exit11

53:                                               ; preds = %_ZN4llvm11raw_ostreamlsENS_9StringRefE.exit8
  %54 = getelementptr inbounds nuw i8, ptr %.0.i7, i64 32
  store i8 41, ptr %47, align 1
  %55 = load ptr, ptr %54, align 8
  %56 = getelementptr inbounds i8, ptr %55, i64 1
  store ptr %56, ptr %54, align 8
  br label %_ZN4llvm11raw_ostreamlsEPKc.exit11

_ZN4llvm11raw_ostreamlsEPKc.exit11:               ; preds = %51, %53
  ret void
}